target datalayout = "e-m:e-p270:32:32-p271:32:32-p272:64:64-i64:64-i128:128-f80:128-n8:16:32:64-S128"
target triple = "x86_64-pc-linux-gnu"

%class.TypeOrigin = type { i32, i32, ptr, %class.VerificationType }
%class.VerificationType = type { %union.anon.3 }
%union.anon.3 = type { ptr }

; Function Attrs: mustprogress nounwind uwtable
define linkonce_odr hidden void @_ZN10TypeOriginC2ENS_6OriginEiP13StackMapFrame16VerificationType(ptr noundef nonnull align 8 dereferenceable(24) %0, i32 noundef %1, i32 noundef %2, ptr noundef %3, ptr %4) unnamed_addr #1 comdat align 2 {
  %6 = alloca %class.VerificationType, align 8
  %7 = alloca ptr, align 8
  %8 = alloca i32, align 4
  %9 = alloca i32, align 4
  %10 = alloca ptr, align 8
  %11 = getelementptr inbounds %class.VerificationType, ptr %6, i32 0, i32 0
  %12 = getelementptr inbounds %union.anon.3, ptr %11, i32 0, i32 0
  store ptr %4, ptr %12, align 8
  store ptr %0, ptr %7, align 8
  store i32 %1, ptr %8, align 4
  store i32 %2, ptr %9, align 4
  store ptr %3, ptr %10, align 8
  %13 = load ptr, ptr %7, align 8
  %14 = getelementptr inbounds %class.TypeOrigin, ptr %13, i32 0, i32 0
  %15 = load i32, ptr %8, align 4
  store i32 %15, ptr %14, align 8
  %16 = getelementptr inbounds %class.TypeOrigin, ptr %13, i32 0, i32 1
  %17 = load i32, ptr %9, align 4
  store i32 %17, ptr %16, align 4
  %18 = getelementptr inbounds %class.TypeOrigin, ptr %13, i32 0, i32 2
  %19 = load ptr, ptr %10, align 8
  store ptr %19, ptr %18, align 8
  %20 = getelementptr inbounds %class.TypeOrigin, ptr %13, i32 0, i32 3
  call void @llvm.memcpy.p0.p0.i64(ptr align 8 %20, ptr align 8 %6, i64 8, i1 false)
  ret void
}

; Function Attrs: mustprogress nounwind uwtable
define linkonce_odr hidden void @_ZN16VerificationTypeC2Em(ptr noundef nonnull align 8 dereferenceable(8) %0, i64 noundef %1) unnamed_addr #1 comdat align 2 {
  %3 = alloca ptr, align 8
  %4 = alloca i64, align 8
  store ptr %0, ptr %3, align 8
  store i64 %1, ptr %4, align 8
  %5 = load ptr, ptr %3, align 8
  %6 = load i64, ptr %4, align 8
  %7 = getelementptr inbounds %class.VerificationType, ptr %5, i32 0, i32 0
  store i64 %6, ptr %7, align 8
  ret void
}

; Function Attrs: mustprogress nounwind uwtable
define hidden void @_ZN10TypeOrigin8implicitE16VerificationType(ptr dead_on_unwind noalias writable sret(%class.TypeOrigin) align 8 %0, ptr %1) #1 align 2 {
  %3 = alloca %class.VerificationType, align 8
  %4 = alloca %class.VerificationType, align 8
  %5 = getelementptr inbounds %class.VerificationType, ptr %3, i32 0, i32 0
  %6 = getelementptr inbounds %union.anon.3, ptr %5, i32 0, i32 0
  store ptr %1, ptr %6, align 8
  call void @llvm.memcpy.p0.p0.i64(ptr align 8 %4, ptr align 8 %3, i64 8, i1 false)
  %7 = getelementptr inbounds %class.VerificationType, ptr %4, i32 0, i32 0
  %8 = getelementptr inbounds %union.anon.3, ptr %7, i32 0, i32 0
  %9 = load ptr, ptr %8, align 8
  call void @_ZN10TypeOriginC2ENS_6OriginEiP13StackMapFrame16VerificationType(ptr noundef nonnull align 8 dereferenceable(24) %0, i32 noundef 6, i32 noundef 0, ptr noundef null, ptr %9)
  ret void
}

; Function Attrs: mustprogress nounwind uwtable
define linkonce_odr hidden ptr @_ZN16VerificationType14reference_typeEP6Symbol(ptr noundef %0) #1 comdat align 2 {
  %2 = alloca %class.VerificationType, align 8
  %3 = alloca ptr, align 8
  store ptr %0, ptr %3, align 8
  %4 = load ptr, ptr %3, align 8
  %5 = ptrtoint ptr %4 to i64
  call void @_ZN16VerificationTypeC2Em(ptr noundef nonnull align 8 dereferenceable(8) %2, i64 noundef %5)
  %6 = getelementptr inbounds %class.VerificationType, ptr %2, i32 0, i32 0
  %7 = getelementptr inbounds %union.anon.3, ptr %6, i32 0, i32 0
  %8 = load ptr, ptr %7, align 8
  ret ptr %8
}

; Function Attrs: mustprogress nounwind uwtable
define hidden void @_ZN13ClassVerifier7ref_ctxEPKc(ptr dead_on_unwind noalias writable sret(%class.TypeOrigin) align 8 %0, ptr noundef nonnull align 8 dereferenceable(8192) %1, ptr noundef %2) #1 align 2 {
  %4 = alloca ptr, align 8
  %5 = alloca ptr, align 8
  %6 = alloca %class.VerificationType, align 8
  %7 = alloca %class.VerificationType, align 8
  store ptr %1, ptr %4, align 8
  store ptr %2, ptr %5, align 8
  %8 = load ptr, ptr %4, align 8
  %9 = load ptr, ptr %5, align 8
  %10 = load ptr, ptr %5, align 8
  %11 = call i64 @strlen(ptr noundef %10) #13
  %12 = trunc i64 %11 to i32
  %13 = call noundef ptr @_ZN13ClassVerifier23create_temporary_symbolEPKci(ptr noundef nonnull align 8 dereferenceable(8192) %8, ptr noundef %9, i32 noundef %12)
  %14 = call ptr @_ZN16VerificationType14reference_typeEP6Symbol(ptr noundef %13)
  %15 = getelementptr inbounds %class.VerificationType, ptr %6, i32 0, i32 0
  %16 = getelementptr inbounds %union.anon.3, ptr %15, i32 0, i32 0
  store ptr %14, ptr %16, align 8
  call void @llvm.memcpy.p0.p0.i64(ptr align 8 %7, ptr align 8 %6, i64 8, i1 false)
  %17 = getelementptr inbounds %class.VerificationType, ptr %7, i32 0, i32 0
  %18 = getelementptr inbounds %union.anon.3, ptr %17, i32 0, i32 0
  %19 = load ptr, ptr %18, align 8
  call void @_ZN10TypeOrigin8implicitE16VerificationType(ptr dead_on_unwind writable sret(%class.TypeOrigin) align 8 %0, ptr %19)
  ret void
}