; Function Attrs: mustprogress nounwind uwtable
define hidden void @_ZN13ClassVerifier7ref_ctxEPKc(ptr dead_on_unwind noalias nocapture writable writeonly sret(%class.TypeOrigin) align 8 %0, ptr nocapture noundef nonnull align 8 dereferenceable(8192) %1, ptr noundef %2) local_unnamed_addr #1 align 2 {
  %4 = tail call i64 @strlen(ptr noundef nonnull dereferenceable(1) %2) #22
  %5 = trunc i64 %4 to i32
  %6 = tail call noundef ptr @_ZN13ClassVerifier23create_temporary_symbolEPKci(ptr noundef nonnull align 8 dereferenceable(8192) %1, ptr noundef %2, i32 noundef %5)
  store i32 6, ptr %0, align 8, !alias.scope !18
  %7 = getelementptr inbounds i8, ptr %0, i64 4
  store i32 0, ptr %7, align 4, !alias.scope !18
  %8 = getelementptr inbounds i8, ptr %0, i64 8
  store ptr null, ptr %8, align 8, !alias.scope !18
  %9 = getelementptr inbounds i8, ptr %0, i64 16
  store ptr %6, ptr %9, align 8, !alias.scope !18
  ret void
}